; Function Attrs: nounwind uwtable
define hidden void @_ir_TAILCALL_3(ptr nocapture noundef %0, i32 noundef %1, i32 noundef %2, i32 noundef %3, i32 noundef %4, i32 noundef %5) local_unnamed_addr #0 {
  %7 = getelementptr inbounds i8, ptr %0, i64 32
  %8 = load i32, ptr %7, align 8
  %9 = icmp eq i32 %8, -1
  br i1 %9, label %10, label %11

10:                                               ; preds = %6
  store i32 %1, ptr %7, align 8
  br label %11

11:                                               ; preds = %10, %6
  %12 = shl i32 %1, 8
  %13 = and i32 %12, 16449280
  %14 = getelementptr inbounds i8, ptr %0, i64 8
  %15 = load i32, ptr %14, align 8
  %16 = add nsw i32 %15, 1
  %17 = getelementptr inbounds i8, ptr %0, i64 12
  %18 = load i32, ptr %17, align 4
  %.not22.i = icmp slt i32 %16, %18
  %.pre30.i = load ptr, ptr %0, align 8
  br i1 %.not22.i, label %ir_emit_N.exit, label %.lr.ph.i

.lr.ph.i:                                         ; preds = %11
  %19 = getelementptr inbounds i8, ptr %0, i64 20
  %.pre29.i = load i32, ptr %19, align 4
  br label %20

20:                                               ; preds = %20, %.lr.ph.i
  %21 = phi i32 [ %.pre29.i, %.lr.ph.i ], [ %35, %20 ]
  %22 = phi ptr [ %.pre30.i, %.lr.ph.i ], [ %37, %20 ]
  %23 = phi i32 [ %18, %.lr.ph.i ], [ %38, %20 ]
  %24 = icmp slt i32 %23, 4096
  %25 = shl nsw i32 %23, 1
  %26 = icmp ult i32 %23, 8192
  %27 = add nuw nsw i32 %23, 4096
  %spec.select.i.i = select i1 %26, i32 8192, i32 %27
  %.sink.i.i = select i1 %24, i32 %25, i32 %spec.select.i.i
  store i32 %.sink.i.i, ptr %17, align 4
  %28 = sext i32 %21 to i64
  %29 = sub nsw i64 0, %28
  %30 = getelementptr inbounds %struct._ir_insn, ptr %22, i64 %29
  %31 = add nsw i32 %.sink.i.i, %21
  %32 = sext i32 %31 to i64
  %33 = shl nsw i64 %32, 4
  %34 = tail call ptr @_erealloc(ptr noundef %30, i64 noundef %33) #24
  %35 = load i32, ptr %19, align 4
  %36 = sext i32 %35 to i64
  %37 = getelementptr inbounds %struct._ir_insn, ptr %34, i64 %36
  store ptr %37, ptr %0, align 8
  %38 = load i32, ptr %17, align 4
  %.not.i = icmp slt i32 %16, %38
  br i1 %.not.i, label %ir_emit_N.exit, label %20

ir_emit_N.exit:                                   ; preds = %20, %11
  %39 = phi ptr [ %.pre30.i, %11 ], [ %37, %20 ]
  %40 = add i32 %15, 2
  store i32 %40, ptr %14, align 8
  %41 = sext i32 %15 to i64
  %42 = getelementptr inbounds %struct._ir_insn, ptr %39, i64 %41
  %43 = or disjoint i32 %13, 327750
  store i32 %43, ptr %42, align 8
  %44 = shl nsw i64 %41, 4
  %45 = or disjoint i64 %44, 4
  %scevgep.i = getelementptr i8, ptr %39, i64 %45
  tail call void @llvm.memset.p0.i64(ptr noundef nonnull align 4 dereferenceable(28) %scevgep.i, i8 0, i64 28, i1 false)
  %46 = getelementptr inbounds i8, ptr %0, i64 248
  %47 = load i32, ptr %46, align 8
  %48 = load ptr, ptr %0, align 8
  %49 = getelementptr inbounds %struct._ir_insn, ptr %48, i64 %41, i32 0, i32 1
  store i32 %47, ptr %49, align 4
  %50 = load ptr, ptr %0, align 8
  %51 = getelementptr inbounds %struct._ir_insn, ptr %50, i64 %41, i32 1
  store i32 %2, ptr %51, align 4
  %52 = load ptr, ptr %0, align 8
  %53 = getelementptr inbounds %struct._ir_insn, ptr %52, i64 %41
  %54 = getelementptr inbounds i8, ptr %53, i64 12
  store i32 %3, ptr %54, align 4
  %55 = load ptr, ptr %0, align 8
  %56 = getelementptr inbounds %struct._ir_insn, ptr %55, i64 %41
  %57 = getelementptr inbounds i8, ptr %56, i64 16
  store i32 %4, ptr %57, align 4
  %58 = load ptr, ptr %0, align 8
  %59 = getelementptr inbounds %struct._ir_insn, ptr %58, i64 %41
  %60 = getelementptr inbounds i8, ptr %59, i64 20
  store i32 %5, ptr %60, align 4
  store i32 %15, ptr %46, align 8
  %61 = load ptr, ptr %0, align 8
  %62 = getelementptr inbounds i8, ptr %61, i64 20
  %63 = load i32, ptr %62, align 4
  %64 = load i32, ptr %14, align 8
  %65 = load i32, ptr %17, align 4
  %.not.i.i.i.i = icmp slt i32 %64, %65
  br i1 %.not.i.i.i.i, label %_ir_UNREACHABLE.exit, label %66

66:                                               ; preds = %ir_emit_N.exit
  %67 = getelementptr inbounds i8, ptr %0, i64 20
  %68 = load i32, ptr %67, align 4
  %69 = icmp slt i32 %65, 4096
  %70 = shl nsw i32 %65, 1
  %71 = icmp ult i32 %65, 8192
  %72 = add nuw nsw i32 %65, 4096
  %spec.select.i.i.i.i.i = select i1 %71, i32 8192, i32 %72
  %.sink.i.i.i.i.i = select i1 %69, i32 %70, i32 %spec.select.i.i.i.i.i
  store i32 %.sink.i.i.i.i.i, ptr %17, align 4
  %73 = sext i32 %68 to i64
  %74 = sub nsw i64 0, %73
  %75 = getelementptr inbounds %struct._ir_insn, ptr %61, i64 %74
  %76 = add nsw i32 %68, %.sink.i.i.i.i.i
  %77 = sext i32 %76 to i64
  %78 = shl nsw i64 %77, 4
  %79 = tail call ptr @_erealloc(ptr noundef %75, i64 noundef %78) #24
  %80 = load i32, ptr %67, align 4
  %81 = sext i32 %80 to i64
  %82 = getelementptr inbounds %struct._ir_insn, ptr %79, i64 %81
  store ptr %82, ptr %0, align 8
  br label %_ir_UNREACHABLE.exit

_ir_UNREACHABLE.exit:                             ; preds = %ir_emit_N.exit, %66
  %83 = phi ptr [ %61, %ir_emit_N.exit ], [ %82, %66 ]
  %84 = add nsw i32 %64, 1
  store i32 %84, ptr %14, align 8
  %85 = sext i32 %64 to i64
  %86 = getelementptr inbounds %struct._ir_insn, ptr %83, i64 %85
  store i32 104, ptr %86, align 8
  %87 = getelementptr inbounds i8, ptr %86, i64 4
  store i32 %15, ptr %87, align 4
  %88 = getelementptr inbounds i8, ptr %86, i64 8
  store i32 0, ptr %88, align 8
  %89 = getelementptr inbounds i8, ptr %86, i64 12
  store i32 %63, ptr %89, align 4
  %90 = load ptr, ptr %0, align 8
  %91 = getelementptr inbounds i8, ptr %90, i64 20
  store i32 %64, ptr %91, align 4
  store i32 0, ptr %46, align 8
  ret void
}